   1               		.file	"main.c"
   2               	__SREG__ = 0x3f
   3               	__SP_H__ = 0x3e
   4               	__SP_L__ = 0x3d
   5               	__CCP__  = 0x34
   6               	__tmp_reg__ = 0
   7               	__zero_reg__ = 1
  15               	.Ltext0:
  16               	.global	USART_Init
  18               	USART_Init:
  19               	.LFB7:
  20               	.LM1:
  21               	/* prologue: function */
  22               	/* frame size = 0 */
  23               	.LM2:
  24 0000 82E0      		ldi r24,lo8(2)
  25 0002 8BB9      		out 43-32,r24
  26               	.LM3:
  27 0004 88E9      		ldi r24,lo8(-104)
  28 0006 8AB9      		out 42-32,r24
  29               	.LM4:
  30 0008 86E8      		ldi r24,lo8(-122)
  31 000a 80BD      		out 64-32,r24
  32               	.LM5:
  33 000c 10BC      		out 64-32,__zero_reg__
  34               	.LM6:
  35 000e 8CE0      		ldi r24,lo8(12)
  36 0010 89B9      		out 41-32,r24
  37               	/* epilogue start */
  38               	.LM7:
  39 0012 0895      		ret
  40               	.LFE7:
  42               	.global	USART_TxChar
  44               	USART_TxChar:
  45               	.LFB8:
  46               	.LM8:
  47               	/* prologue: function */
  48               	/* frame size = 0 */
  49               	.LVL0:
  50               	.L4:
  51               	.LM9:
  52 0014 5D9B      		sbis 43-32,5
  53 0016 00C0      		rjmp .L4
  54               	.LM10:
  55 0018 8CB9      		out 44-32,r24
  56               	/* epilogue start */
  57               	.LM11:
  58 001a 0895      		ret
  59               	.LFE8:
  61               	.global	USART_SendString
  63               	USART_SendString:
  64               	.LFB9:
  65               	.LM12:
  66               	.LVL1:
  67               	/* prologue: function */
  68               	/* frame size = 0 */
  69               	.LM13:
  70 001c FC01      		movw r30,r24
  71               	.LVL2:
  72 001e 00C0      		rjmp .L8
  73               	.L11:
  74               	.LBB74:
  75               	.LBB75:
  76               	.LM14:
  77 0020 5D9B      		sbis 43-32,5
  78 0022 00C0      		rjmp .L11
  79               	.LM15:
  80 0024 8CB9      		out 44-32,r24
  81 0026 3196      		adiw r30,1
  82               	.L8:
  83               	.LBE75:
  84               	.LBE74:
  85               	.LM16:
  86 0028 8081      		ld r24,Z
  87 002a 8823      		tst r24
  88 002c 01F4      		brne .L11
  89               	/* epilogue start */
  90               	.LM17:
  91 002e 0895      		ret
  92               	.LFE9:
  94               	.global	PortMcuInit
  96               	PortMcuInit:
  97               	.LFB13:
  98               	.LM18:
  99               	/* prologue: function */
 100               	/* frame size = 0 */
 101               	.LM19:
 102 0030 82E0      		ldi r24,lo8(2)
 103 0032 81BB      		out 49-32,r24
 104               	.LM20:
 105 0034 9CEF      		ldi r25,lo8(-4)
 106 0036 92BB      		out 50-32,r25
 107               	.LM21:
 108 0038 83E0      		ldi r24,lo8(3)
 109 003a 84BB      		out 52-32,r24
 110               	.LM22:
 111 003c 95BB      		out 53-32,r25
 112               	.LM23:
 113 003e 17BA      		out 55-32,__zero_reg__
 114               	.LM24:
 115 0040 8FEF      		ldi r24,lo8(-1)
 116 0042 88BB      		out 56-32,r24
 117               	/* epilogue start */
 118               	.LM25:
 119 0044 0895      		ret
 120               	.LFE13:
 122               	.global	SetDEtect
 124               	SetDEtect:
 125               	.LFB22:
 126               	.LM26:
 127               	.LVL3:
 128               	/* prologue: function */
 129               	/* frame size = 0 */
 130               	.LM27:
 131 0046 8093 0000 		sts packet_detect,r24
 132               	/* epilogue start */
 133               	.LM28:
 134 004a 0895      		ret
 135               	.LFE22:
 137               	.global	SetInit
 139               	SetInit:
 140               	.LFB23:
 141               	.LM29:
 142               	.LVL4:
 143               	/* prologue: function */
 144               	/* frame size = 0 */
 145               	.LM30:
 146 004c 8093 0000 		sts init,r24
 147               	/* epilogue start */
 148               	.LM31:
 149 0050 0895      		ret
 150               	.LFE23:
 152               	.global	blink
 154               	blink:
 155               	.LFB25:
 156               	.LM32:
 157               	/* prologue: function */
 158               	/* frame size = 0 */
 159               	.LM33:
 160 0052 A99A      		sbi 53-32,1
 161 0054 80E1      		ldi r24,lo8(10000)
 162 0056 97E2      		ldi r25,hi8(10000)
 163               	.LVL5:
 164               	.LBB76:
 165               	.LBB77:
 166               	.LBB78:
 167               	.LBB79:
 168               	.LM34:
 169 0058 2CE2      		ldi r18,lo8(300)
 170 005a 31E0      		ldi r19,hi8(300)
 171               	.L20:
 172 005c F901      		movw r30,r18
 173               	.LVL6:
 174               	/* #APP */
 175               	 ;  105 "c:/winavr-20100110/lib/gcc/../../avr/include/util/delay_basic.h" 1
 176 005e 3197      		1: sbiw r30,1
 177 0060 01F4      		brne 1b
 178               	 ;  0 "" 2
 179               	/* #NOAPP */
 180               	.LBE79:
 181               	.LBE78:
 182               	.LM35:
 183 0062 0197      		sbiw r24,1
 184               	.LM36:
 185 0064 01F4      		brne .L20
 186               	.LBE77:
 187               	.LBE76:
 188               	.LM37:
 189 0066 A998      		cbi 53-32,1
 190 0068 80E1      		ldi r24,lo8(10000)
 191 006a 97E2      		ldi r25,hi8(10000)
 192               	.LVL7:
 193               	.LBB80:
 194               	.LBB81:
 195               	.LBB82:
 196               	.LBB83:
 197               	.LM38:
 198 006c 2CE2      		ldi r18,lo8(300)
 199 006e 31E0      		ldi r19,hi8(300)
 200               	.L21:
 201 0070 F901      		movw r30,r18
 202               	.LVL8:
 203               	/* #APP */
 204               	 ;  105 "c:/winavr-20100110/lib/gcc/../../avr/include/util/delay_basic.h" 1
 205 0072 3197      		1: sbiw r30,1
 206 0074 01F4      		brne 1b
 207               	 ;  0 "" 2
 208               	/* #NOAPP */
 209               	.LBE83:
 210               	.LBE82:
 211               	.LM39:
 212 0076 0197      		sbiw r24,1
 213               	.LM40:
 214 0078 01F4      		brne .L21
 215               	/* epilogue start */
 216               	.LBE81:
 217               	.LBE80:
 218               	.LM41:
 219 007a 0895      		ret
 220               	.LFE25:
 222               		.data
 223               	.LC0:
 224 0000 2B49 5044 		.string	"+IPD"
 224      00
 225               	.LC1:
 226 0005 2F6F 6E00 		.string	"/on"
 227               	.LC2:
 228 0009 2F6F 6666 		.string	"/off"
 228      00
 229               		.text
 230               	.global	__vector_11
 232               	__vector_11:
 233               	.LFB24:
 234               	.LM42:
 235 007c 1F92      		push __zero_reg__
 236 007e 0F92      		push r0
 237 0080 0FB6      		in r0,__SREG__
 238 0082 0F92      		push r0
 239 0084 1124      		clr __zero_reg__
 240 0086 2F93      		push r18
 241 0088 3F93      		push r19
 242 008a 4F93      		push r20
 243 008c 5F93      		push r21
 244 008e 6F93      		push r22
 245 0090 7F93      		push r23
 246 0092 8F93      		push r24
 247 0094 9F93      		push r25
 248 0096 AF93      		push r26
 249 0098 BF93      		push r27
 250 009a EF93      		push r30
 251 009c FF93      		push r31
 252               	/* prologue: Signal */
 253               	/* frame size = 0 */
 254               	.LM43:
 255 009e 8BB1      		in r24,43-32
 256               	.LVL9:
 257               	.LM44:
 258 00a0 2CB1      		in r18,44-32
 259               	.LVL10:
 260               	.LM45:
 261 00a2 8C71      		andi r24,lo8(28)
 262 00a4 01F4      		brne .L31
 263               	.LM46:
 264 00a6 8091 0000 		lds r24,Counter
 265 00aa 9091 0000 		lds r25,(Counter)+1
 266               	.LVL11:
 267 00ae FC01      		movw r30,r24
 268 00b0 E050      		subi r30,lo8(-(RESPONSE_BUFFER))
 269 00b2 F040      		sbci r31,hi8(-(RESPONSE_BUFFER))
 270 00b4 2083      		st Z,r18
 271               	.LM47:
 272 00b6 31E0      		ldi r19,hi8(300)
 273 00b8 8C32      		cpi r24,lo8(300)
 274 00ba 9307      		cpc r25,r19
 275 00bc 01F4      		brne .L27
 276               	.LM48:
 277 00be 1092 0000 		sts (Counter)+1,__zero_reg__
 278 00c2 1092 0000 		sts Counter,__zero_reg__
 279 00c6 00C0      		rjmp .L28
 280               	.L27:
 281               	.LM49:
 282 00c8 0196      		adiw r24,1
 283 00ca 9093 0000 		sts (Counter)+1,r25
 284 00ce 8093 0000 		sts Counter,r24
 285               	.L28:
 286               	.LM50:
 287 00d2 2D30      		cpi r18,lo8(13)
 288 00d4 01F4      		brne .L31
 289               	.LM51:
 290 00d6 80E0      		ldi r24,lo8(RESPONSE_BUFFER)
 291 00d8 90E0      		ldi r25,hi8(RESPONSE_BUFFER)
 292 00da 60E0      		ldi r22,lo8(.LC0)
 293 00dc 70E0      		ldi r23,hi8(.LC0)
 294 00de 00D0      		rcall strstr
 295               	.LVL12:
 296 00e0 0097      		sbiw r24,0
 297 00e2 01F0      		breq .L31
 298               	.LBB84:
 299               	.LBB85:
 300               	.LM52:
 301 00e4 1092 0000 		sts init,__zero_reg__
 302               	.LBE85:
 303               	.LBE84:
 304               	.LM53:
 305 00e8 80E0      		ldi r24,lo8(RESPONSE_BUFFER)
 306 00ea 90E0      		ldi r25,hi8(RESPONSE_BUFFER)
 307 00ec 60E0      		ldi r22,lo8(.LC1)
 308 00ee 70E0      		ldi r23,hi8(.LC1)
 309 00f0 00D0      		rcall strstr
 310 00f2 0097      		sbiw r24,0
 311 00f4 01F0      		breq .L29
 312               	.LBB86:
 313               	.LBB87:
 314               	.LM54:
 315 00f6 81E0      		ldi r24,lo8(1)
 316 00f8 8093 0000 		sts init,r24
 317               	.LBE87:
 318               	.LBE86:
 319               	.LM55:
 320 00fc A89A      		sbi 53-32,0
 321               	.L29:
 322               	.LM56:
 323 00fe 80E0      		ldi r24,lo8(RESPONSE_BUFFER)
 324 0100 90E0      		ldi r25,hi8(RESPONSE_BUFFER)
 325 0102 60E0      		ldi r22,lo8(.LC2)
 326 0104 70E0      		ldi r23,hi8(.LC2)
 327 0106 00D0      		rcall strstr
 328 0108 0097      		sbiw r24,0
 329 010a 01F0      		breq .L30
 330               	.LBB88:
 331               	.LBB89:
 332               	.LM57:
 333 010c 81E0      		ldi r24,lo8(1)
 334 010e 8093 0000 		sts init,r24
 335               	.LBE89:
 336               	.LBE88:
 337               	.LM58:
 338 0112 A898      		cbi 53-32,0
 339               	.L30:
 340               	.LBB90:
 341               	.LBB91:
 342               	.LM59:
 343 0114 81E0      		ldi r24,lo8(1)
 344 0116 8093 0000 		sts packet_detect,r24
 345               	.LVL13:
 346               	.L31:
 347               	/* epilogue start */
 348               	.LBE91:
 349               	.LBE90:
 350               	.LM60:
 351 011a FF91      		pop r31
 352 011c EF91      		pop r30
 353 011e BF91      		pop r27
 354 0120 AF91      		pop r26
 355 0122 9F91      		pop r25
 356 0124 8F91      		pop r24
 357               	.LVL14:
 358 0126 7F91      		pop r23
 359 0128 6F91      		pop r22
 360 012a 5F91      		pop r21
 361 012c 4F91      		pop r20
 362 012e 3F91      		pop r19
 363 0130 2F91      		pop r18
 364               	.LVL15:
 365 0132 0F90      		pop r0
 366 0134 0FBE      		out __SREG__,r0
 367 0136 0F90      		pop r0
 368 0138 1F90      		pop __zero_reg__
 369 013a 1895      		reti
 370               	.LFE24:
 372               		.data
 373               	.LC3:
 374 000e 0D0A 4F4B 		.string	"\r\nOK\r\n"
 374      0D0A 00
 375               		.text
 376               	.global	GetResponseBody
 378               	GetResponseBody:
 379               	.LFB19:
 380               	.LM61:
 381               	.LVL16:
 382 013c CF92      		push r12
 383 013e DF92      		push r13
 384 0140 EF92      		push r14
 385 0142 FF92      		push r15
 386 0144 0F93      		push r16
 387 0146 1F93      		push r17
 388 0148 DF93      		push r29
 389 014a CF93      		push r28
 390 014c 00D0      		rcall .
 391 014e 00D0      		rcall .
 392 0150 0F92      		push __tmp_reg__
 393 0152 CDB7      		in r28,__SP_L__
 394 0154 DEB7      		in r29,__SP_H__
 395               	/* prologue: function */
 396               	/* frame size = 5 */
 397 0156 7C01      		movw r14,r24
 398               	.LM62:
 399 0158 8CE0      		ldi r24,lo8(12)
 400 015a C82E      		mov r12,r24
 401 015c D12C      		mov r13,__zero_reg__
 402               	.LVL17:
 403 015e 00C0      		rjmp .L33
 404               	.L35:
 405               	.LM63:
 406 0160 0894      		sec
 407 0162 C11C      		adc r12,__zero_reg__
 408 0164 D11C      		adc r13,__zero_reg__
 409               	.L33:
 410               	.LM64:
 411 0166 F701      		movw r30,r14
 412 0168 EC0D      		add r30,r12
 413 016a FD1D      		adc r31,r13
 414 016c 8081      		ld r24,Z
 415 016e 8D30      		cpi r24,lo8(13)
 416 0170 01F0      		breq .L34
 417 0172 8CE2      		ldi r24,lo8(300)
 418 0174 C816      		cp r12,r24
 419 0176 81E0      		ldi r24,hi8(300)
 420 0178 D806      		cpc r13,r24
 421 017a 01F4      		brne .L35
 422               	.L34:
 423               	.LM65:
 424 017c B701      		movw r22,r14
 425               	.LVL18:
 426 017e 645F      		subi r22,lo8(-(12))
 427 0180 7F4F      		sbci r23,hi8(-(12))
 428 0182 A601      		movw r20,r12
 429 0184 4C50      		subi r20,lo8(-(-12))
 430 0186 5040      		sbci r21,hi8(-(-12))
 431 0188 CE01      		movw r24,r28
 432 018a 0196      		adiw r24,1
 433 018c 00D0      		rcall strncpy
 434               	.LM66:
 435 018e C601      		movw r24,r12
 436 0190 0296      		adiw r24,2
 437               	.LVL19:
 438               	.LM67:
 439 0192 D701      		movw r26,r14
 440 0194 0D90      		ld __tmp_reg__,X+
 441 0196 0020      		tst __tmp_reg__
 442 0198 01F4      		brne .-6
 443 019a 8D01      		movw r16,r26
 444               	.LVL20:
 445 019c 0150      		subi r16,lo8(-(-1))
 446 019e 1040      		sbci r17,hi8(-(-1))
 447 01a0 0E19      		sub r16,r14
 448 01a2 1F09      		sbc r17,r15
 449 01a4 081B      		sub r16,r24
 450 01a6 190B      		sbc r17,r25
 451               	.LM68:
 452 01a8 9701      		movw r18,r14
 453 01aa 280F      		add r18,r24
 454 01ac 391F      		adc r19,r25
 455 01ae C701      		movw r24,r14
 456               	.LVL21:
 457 01b0 B901      		movw r22,r18
 458 01b2 A801      		movw r20,r16
 459               	.LVL22:
 460 01b4 00D0      		rcall memcpy
 461               	.LM69:
 462 01b6 0650      		subi r16,lo8(-(-6))
 463 01b8 1040      		sbci r17,hi8(-(-6))
 464               	.LVL23:
 465 01ba 0E0D      		add r16,r14
 466 01bc 1F1D      		adc r17,r15
 467               	.LVL24:
 468 01be C801      		movw r24,r16
 469 01c0 60E0      		ldi r22,lo8(.LC3)
 470 01c2 70E0      		ldi r23,hi8(.LC3)
 471 01c4 46E0      		ldi r20,lo8(6)
 472 01c6 50E0      		ldi r21,hi8(6)
 473 01c8 00D0      		rcall strncmp
 474 01ca 0097      		sbiw r24,0
 475 01cc 01F4      		brne .L38
 476               	.LM70:
 477 01ce 9601      		movw r18,r12
 478               	.LVL25:
 479 01d0 285F      		subi r18,lo8(-(8))
 480 01d2 3F4F      		sbci r19,hi8(-(8))
 481 01d4 C801      		movw r24,r16
 482 01d6 60E0      		ldi r22,lo8(0)
 483 01d8 70E0      		ldi r23,hi8(0)
 484 01da A901      		movw r20,r18
 485 01dc 00D0      		rcall memset
 486               	.L38:
 487               	/* epilogue start */
 488               	.LM71:
 489 01de 0F90      		pop __tmp_reg__
 490 01e0 0F90      		pop __tmp_reg__
 491 01e2 0F90      		pop __tmp_reg__
 492 01e4 0F90      		pop __tmp_reg__
 493 01e6 0F90      		pop __tmp_reg__
 494 01e8 CF91      		pop r28
 495 01ea DF91      		pop r29
 496 01ec 1F91      		pop r17
 497 01ee 0F91      		pop r16
 498 01f0 FF90      		pop r15
 499 01f2 EF90      		pop r14
 500               	.LVL26:
 501 01f4 DF90      		pop r13
 502 01f6 CF90      		pop r12
 503               	.LVL27:
 504 01f8 0895      		ret
 505               	.LFE19:
 507               	.global	Buffer_Flush
 509               	Buffer_Flush:
 510               	.LFB16:
 511               	.LM72:
 512               	/* prologue: function */
 513               	/* frame size = 0 */
 514               	.LM73:
 515 01fa 8CE2      		ldi r24,lo8(300)
 516 01fc 91E0      		ldi r25,hi8(300)
 517 01fe E0E0      		ldi r30,lo8(RESPONSE_BUFFER)
 518 0200 F0E0      		ldi r31,hi8(RESPONSE_BUFFER)
 519 0202 DF01      		movw r26,r30
 520 0204 9C01      		movw r18,r24
 521 0206 1D92      		st X+,__zero_reg__
 522 0208 2150      		subi r18,1
 523 020a 3040      		sbci r19,0
 524 020c 01F4      		brne .-8
 525               	.LM74:
 526 020e 1092 0000 		sts (Counter)+1,__zero_reg__
 527 0212 1092 0000 		sts Counter,__zero_reg__
 528               	/* epilogue start */
 529               	.LM75:
 530 0216 0895      		ret
 531               	.LFE16:
 533               		.data
 534               	.LC4:
 535 0015 0D0A 00   		.string	"\r\n"
 536               		.text
 537               	.global	Read_Response
 539               	Read_Response:
 540               	.LFB14:
 541               	.LM76:
 542 0218 8F92      		push r8
 543 021a 9F92      		push r9
 544 021c AF92      		push r10
 545 021e BF92      		push r11
 546 0220 CF92      		push r12
 547 0222 DF92      		push r13
 548 0224 EF92      		push r14
 549 0226 FF92      		push r15
 550 0228 0F93      		push r16
 551 022a 1F93      		push r17
 552 022c CF93      		push r28
 553 022e DF93      		push r29
 554               	/* prologue: function */
 555               	/* frame size = 0 */
 556               	.LM77:
 557 0230 CC24      		clr r12
 558 0232 DD24      		clr r13
 559               	.LVL28:
 560               	.LM78:
 561 0234 20E0      		ldi r18,lo8(RESPONSE_BUFFER)
 562 0236 822E      		mov r8,r18
 563 0238 20E0      		ldi r18,hi8(RESPONSE_BUFFER)
 564 023a 922E      		mov r9,r18
 565               	.LBB92:
 566               	.LBB93:
 567               	.LBB94:
 568               	.LBB95:
 569               	.LM79:
 570 023c 98EB      		ldi r25,lo8(3000)
 571 023e A92E      		mov r10,r25
 572 0240 9BE0      		ldi r25,hi8(3000)
 573 0242 B92E      		mov r11,r25
 574               	.LVL29:
 575               	.L49:
 576               	.LBE95:
 577               	.LBE94:
 578               	.LBE93:
 579               	.LBE92:
 580               	.LM80:
 581 0244 8091 0000 		lds r24,TimeOut
 582 0248 9091 0000 		lds r25,(TimeOut)+1
 583               	.LVL30:
 584 024c 805E      		subi r24,lo8(-(20000))
 585 024e 914B      		sbci r25,hi8(-(20000))
 586 0250 C816      		cp r12,r24
 587 0252 D906      		cpc r13,r25
 588 0254 00F0      		brlo .L42
 589               	.LM81:
 590 0256 1092 0000 		sts CRLF_COUNT,__zero_reg__
 591               	.LM82:
 592 025a 1092 0000 		sts (TimeOut)+1,__zero_reg__
 593 025e 1092 0000 		sts TimeOut,__zero_reg__
 594               	.LM83:
 595 0262 82E0      		ldi r24,lo8(2)
 596 0264 00C0      		rjmp .L51
 597               	.L42:
 598               	.LM84:
 599 0266 8091 0000 		lds r24,Response_Status
 600 026a 8430      		cpi r24,lo8(4)
 601 026c 01F4      		brne .L44
 602               	.LM85:
 603 026e 1092 0000 		sts CRLF_FOUND.1736,__zero_reg__
 604               	.LM86:
 605 0272 1092 0000 		sts (CRLF_BUF.1735)+1,__zero_reg__
 606 0276 1092 0000 		sts CRLF_BUF.1735,__zero_reg__
 607               	.LM87:
 608 027a 1092 0000 		sts Response_Status,__zero_reg__
 609               	.L44:
 610               	.LM88:
 611 027e F401      		movw r30,r8
 612 0280 0190      		ld __tmp_reg__,Z+
 613 0282 0020      		tst __tmp_reg__
 614 0284 01F4      		brne .-6
 615 0286 8F01      		movw r16,r30
 616 0288 0150      		subi r16,lo8(-(-1))
 617 028a 1040      		sbci r17,hi8(-(-1))
 618 028c 0050      		subi r16,lo8(RESPONSE_BUFFER)
 619 028e 1040      		sbci r17,hi8(RESPONSE_BUFFER)
 620               	.LM89:
 621 0290 01F4      		brne .+2
 622 0292 00C0      		rjmp .L45
 623               	.LBB99:
 624               	.LBB98:
 625               	.LBB97:
 626               	.LBB96:
 627               	.LM90:
 628 0294 C501      		movw r24,r10
 629               	.LVL31:
 630               	/* #APP */
 631               	 ;  105 "c:/winavr-20100110/lib/gcc/../../avr/include/util/delay_basic.h" 1
 632 0296 0197      		1: sbiw r24,1
 633 0298 01F4      		brne 1b
 634               	 ;  0 "" 2
 635               	/* #NOAPP */
 636               	.LBE96:
 637               	.LBE97:
 638               	.LBE98:
 639               	.LBE99:
 640               	.LBB100:
 641               	.LM91:
 642 029a 8091 0000 		lds r24,CRLF_COUNT
 643               	.LVL32:
 644 029e E82E      		mov r14,r24
 645 02a0 FF24      		clr r15
 646 02a2 82E0      		ldi r24,lo8(2)
 647 02a4 90E0      		ldi r25,hi8(2)
 648 02a6 E80E      		add r14,r24
 649 02a8 F91E      		adc r15,r25
 650 02aa C0E0      		ldi r28,lo8(0)
 651 02ac D0E0      		ldi r29,hi8(0)
 652 02ae 00C0      		rjmp .L46
 653               	.L48:
 654               	.LM92:
 655 02b0 8091 0000 		lds r24,CRLF_BUF.1735+1
 656 02b4 8093 0000 		sts CRLF_BUF.1735,r24
 657               	.LM93:
 658 02b8 FE01      		movw r30,r28
 659 02ba E050      		subi r30,lo8(-(RESPONSE_BUFFER))
 660 02bc F040      		sbci r31,hi8(-(RESPONSE_BUFFER))
 661 02be 8081      		ld r24,Z
 662 02c0 8093 0000 		sts CRLF_BUF.1735+1,r24
 663               	.LM94:
 664 02c4 80E0      		ldi r24,lo8(CRLF_BUF.1735)
 665 02c6 90E0      		ldi r25,hi8(CRLF_BUF.1735)
 666 02c8 60E0      		ldi r22,lo8(.LC4)
 667 02ca 70E0      		ldi r23,hi8(.LC4)
 668 02cc 42E0      		ldi r20,lo8(2)
 669 02ce 50E0      		ldi r21,hi8(2)
 670 02d0 00D0      		rcall strncmp
 671 02d2 0097      		sbiw r24,0
 672 02d4 01F4      		brne .L47
 673               	.LM95:
 674 02d6 8091 0000 		lds r24,CRLF_FOUND.1736
 675 02da 8F5F      		subi r24,lo8(-(1))
 676 02dc 8093 0000 		sts CRLF_FOUND.1736,r24
 677 02e0 90E0      		ldi r25,lo8(0)
 678 02e2 8E15      		cp r24,r14
 679 02e4 9F05      		cpc r25,r15
 680 02e6 01F4      		brne .L47
 681               	.LM96:
 682 02e8 1092 0000 		sts CRLF_COUNT,__zero_reg__
 683 02ec 1092 0000 		sts (TimeOut)+1,__zero_reg__
 684 02f0 1092 0000 		sts TimeOut,__zero_reg__
 685               	.LM97:
 686 02f4 81E0      		ldi r24,lo8(1)
 687               	.L51:
 688 02f6 8093 0000 		sts Response_Status,r24
 689               	/* epilogue start */
 690               	.LBE100:
 691               	.LM98:
 692 02fa DF91      		pop r29
 693 02fc CF91      		pop r28
 694               	.LVL33:
 695 02fe 1F91      		pop r17
 696 0300 0F91      		pop r16
 697               	.LVL34:
 698 0302 FF90      		pop r15
 699 0304 EF90      		pop r14
 700 0306 DF90      		pop r13
 701 0308 CF90      		pop r12
 702               	.LVL35:
 703 030a BF90      		pop r11
 704 030c AF90      		pop r10
 705 030e 9F90      		pop r9
 706 0310 8F90      		pop r8
 707 0312 0895      		ret
 708               	.LVL36:
 709               	.L47:
 710               	.LBB101:
 711               	.LM99:
 712 0314 2196      		adiw r28,1
 713               	.L46:
 714 0316 C017      		cp r28,r16
 715 0318 D107      		cpc r29,r17
 716 031a 00F0      		brlo .L48
 717               	.LBE101:
 718               	.LM100:
 719 031c 0894      		sec
 720 031e C11C      		adc r12,__zero_reg__
 721 0320 D11C      		adc r13,__zero_reg__
 722               	.LBB102:
 723               	.LM101:
 724 0322 1092 0000 		sts CRLF_FOUND.1736,__zero_reg__
 725               	.L45:
 726               	.LBE102:
 727               	.LBB103:
 728               	.LBB104:
 729               	.LBB105:
 730               	.LBB106:
 731               	.LM102:
 732 0326 C501      		movw r24,r10
 733               	.LVL37:
 734               	/* #APP */
 735               	 ;  105 "c:/winavr-20100110/lib/gcc/../../avr/include/util/delay_basic.h" 1
 736 0328 0197      		1: sbiw r24,1
 737 032a 01F4      		brne 1b
 738               	 ;  0 "" 2
 739               	/* #NOAPP */
 740               	.LBE106:
 741               	.LBE105:
 742               	.LBE104:
 743               	.LBE103:
 744               	.LM103:
 745 032c 0894      		sec
 746 032e C11C      		adc r12,__zero_reg__
 747 0330 D11C      		adc r13,__zero_reg__
 748 0332 00C0      		rjmp .L49
 749               	.LFE14:
 751               	.global	Start_Read_Response
 753               	Start_Read_Response:
 754               	.LFB15:
 755               	.LM104:
 756               	/* prologue: function */
 757               	/* frame size = 0 */
 758               	.LM105:
 759 0334 84E0      		ldi r24,lo8(4)
 760 0336 8093 0000 		sts Response_Status,r24
 761               	.L53:
 762               	.LM106:
 763 033a 00D0      		rcall Read_Response
 764               	.LM107:
 765 033c 8091 0000 		lds r24,Response_Status
 766 0340 8823      		tst r24
 767 0342 01F0      		breq .L53
 768               	/* epilogue start */
 769               	.LM108:
 770 0344 0895      		ret
 771               	.LFE15:
 773               	.global	WaitForExpectedResponseArray
 775               	WaitForExpectedResponseArray:
 776               	.LFB18:
 777               	.LM109:
 778               	.LVL38:
 779 0346 1F93      		push r17
 780 0348 CF93      		push r28
 781 034a DF93      		push r29
 782               	/* prologue: function */
 783               	/* frame size = 0 */
 784 034c EC01      		movw r28,r24
 785 034e 162F      		mov r17,r22
 786               	.LM110:
 787 0350 00D0      		rcall Buffer_Flush
 788               	.LVL39:
 789 0352 80ED      		ldi r24,lo8(2000)
 790 0354 97E0      		ldi r25,hi8(2000)
 791               	.LVL40:
 792               	.LBB107:
 793               	.LBB108:
 794               	.LBB109:
 795               	.LBB110:
 796               	.LM111:
 797 0356 2CE2      		ldi r18,lo8(300)
 798 0358 31E0      		ldi r19,hi8(300)
 799               	.L57:
 800 035a F901      		movw r30,r18
 801               	.LVL41:
 802               	/* #APP */
 803               	 ;  105 "c:/winavr-20100110/lib/gcc/../../avr/include/util/delay_basic.h" 1
 804 035c 3197      		1: sbiw r30,1
 805 035e 01F4      		brne 1b
 806               	 ;  0 "" 2
 807               	/* #NOAPP */
 808               	.LBE110:
 809               	.LBE109:
 810               	.LM112:
 811 0360 0197      		sbiw r24,1
 812               	.LM113:
 813 0362 01F4      		brne .L57
 814               	.LBE108:
 815               	.LBE107:
 816               	.LM114:
 817 0364 00D0      		rcall Start_Read_Response
 818               	.LVL42:
 819               	.LBB111:
 820               	.LM115:
 821 0366 1123      		tst r17
 822 0368 01F0      		breq .L58
 823               	.LM116:
 824 036a 8091 0000 		lds r24,Response_Status
 825 036e 8230      		cpi r24,lo8(2)
 826 0370 01F0      		breq .L58
 827 0372 6881      		ld r22,Y
 828 0374 7981      		ldd r23,Y+1
 829 0376 80E0      		ldi r24,lo8(RESPONSE_BUFFER)
 830 0378 90E0      		ldi r25,hi8(RESPONSE_BUFFER)
 831 037a 00D0      		rcall strstr
 832 037c 9C01      		movw r18,r24
 833 037e 80E0      		ldi r24,lo8(0)
 834 0380 232B      		or r18,r19
 835 0382 01F0      		breq .L60
 836 0384 81E0      		ldi r24,lo8(1)
 837 0386 00C0      		rjmp .L60
 838               	.L58:
 839 0388 80E0      		ldi r24,lo8(0)
 840               	.L60:
 841               	/* epilogue start */
 842               	.LBE111:
 843               	.LM117:
 844 038a DF91      		pop r29
 845 038c CF91      		pop r28
 846               	.LVL43:
 847 038e 1F91      		pop r17
 848               	.LVL44:
 849 0390 0895      		ret
 850               	.LFE18:
 852               	.global	WaitForExpectedResponse
 854               	WaitForExpectedResponse:
 855               	.LFB17:
 856               	.LM118:
 857               	.LVL45:
 858 0392 CF93      		push r28
 859 0394 DF93      		push r29
 860               	/* prologue: function */
 861               	/* frame size = 0 */
 862 0396 EC01      		movw r28,r24
 863               	.LM119:
 864 0398 00D0      		rcall Buffer_Flush
 865               	.LVL46:
 866 039a 80ED      		ldi r24,lo8(2000)
 867 039c 97E0      		ldi r25,hi8(2000)
 868               	.LVL47:
 869               	.LBB112:
 870               	.LBB113:
 871               	.LBB114:
 872               	.LBB115:
 873               	.LM120:
 874 039e 2CE2      		ldi r18,lo8(300)
 875 03a0 31E0      		ldi r19,hi8(300)
 876               	.L64:
 877 03a2 F901      		movw r30,r18
 878               	.LVL48:
 879               	/* #APP */
 880               	 ;  105 "c:/winavr-20100110/lib/gcc/../../avr/include/util/delay_basic.h" 1
 881 03a4 3197      		1: sbiw r30,1
 882 03a6 01F4      		brne 1b
 883               	 ;  0 "" 2
 884               	/* #NOAPP */
 885               	.LBE115:
 886               	.LBE114:
 887               	.LM121:
 888 03a8 0197      		sbiw r24,1
 889               	.LM122:
 890 03aa 01F4      		brne .L64
 891               	.LBE113:
 892               	.LBE112:
 893               	.LM123:
 894 03ac 00D0      		rcall Start_Read_Response
 895               	.LVL49:
 896               	.LM124:
 897 03ae 8091 0000 		lds r24,Response_Status
 898 03b2 8230      		cpi r24,lo8(2)
 899 03b4 01F4      		brne .L65
 900 03b6 80E0      		ldi r24,lo8(0)
 901 03b8 00C0      		rjmp .L66
 902               	.L65:
 903 03ba 80E0      		ldi r24,lo8(RESPONSE_BUFFER)
 904 03bc 90E0      		ldi r25,hi8(RESPONSE_BUFFER)
 905 03be BE01      		movw r22,r28
 906 03c0 00D0      		rcall strstr
 907 03c2 9C01      		movw r18,r24
 908 03c4 80E0      		ldi r24,lo8(0)
 909 03c6 232B      		or r18,r19
 910 03c8 01F0      		breq .L66
 911 03ca 81E0      		ldi r24,lo8(1)
 912               	.L66:
 913               	/* epilogue start */
 914               	.LM125:
 915 03cc DF91      		pop r29
 916 03ce CF91      		pop r28
 917               	.LVL50:
 918 03d0 0895      		ret
 919               	.LFE17:
 921               	.global	SendATandExpectResponse
 923               	SendATandExpectResponse:
 924               	.LFB20:
 925               	.LM126:
 926               	.LVL51:
 927 03d2 0F93      		push r16
 928 03d4 1F93      		push r17
 929               	/* prologue: function */
 930               	/* frame size = 0 */
 931 03d6 8B01      		movw r16,r22
 932               	.LM127:
 933 03d8 00D0      		rcall USART_SendString
 934               	.LVL52:
 935               	.LM128:
 936 03da 80E0      		ldi r24,lo8(.LC4)
 937 03dc 90E0      		ldi r25,hi8(.LC4)
 938 03de 00D0      		rcall USART_SendString
 939               	.LM129:
 940 03e0 C801      		movw r24,r16
 941 03e2 00D0      		rcall WaitForExpectedResponse
 942               	/* epilogue start */
 943               	.LM130:
 944 03e4 1F91      		pop r17
 945 03e6 0F91      		pop r16
 946               	.LVL53:
 947 03e8 0895      		ret
 948               	.LFE20:
 950               		.data
 951               	.LC5:
 952 0018 4154 4530 		.string	"ATE0"
 952      00
 953               	.LC6:
 954 001d 4F4B 00   		.string	"OK"
 955               	.LC7:
 956 0020 4154 00   		.string	"AT"
 957               		.text
 958               	.global	Start
 960               	Start:
 961               	.LFB21:
 962               	.LM131:
 963               	/* prologue: function */
 964               	/* frame size = 0 */
 965               	.LM132:
 966 03ea 80E0      		ldi r24,lo8(.LC5)
 967 03ec 90E0      		ldi r25,hi8(.LC5)
 968 03ee 60E0      		ldi r22,lo8(.LC6)
 969 03f0 70E0      		ldi r23,hi8(.LC6)
 970 03f2 00D0      		rcall SendATandExpectResponse
 971 03f4 8823      		tst r24
 972 03f6 01F0      		breq .L73
 973 03f8 81E0      		ldi r24,lo8(1)
 974 03fa 0895      		ret
 975               	.L73:
 976 03fc 80E0      		ldi r24,lo8(.LC7)
 977 03fe 90E0      		ldi r25,hi8(.LC7)
 978 0400 60E0      		ldi r22,lo8(.LC6)
 979 0402 70E0      		ldi r23,hi8(.LC6)
 980 0404 00D0      		rcall SendATandExpectResponse
 981               	.LM133:
 982 0406 0895      		ret
 983               	.LFE21:
 985               		.data
 986               	.LC8:
 987 0023 4154 2B52 		.string	"AT+RST"
 987      5354 00
 988               	.LC9:
 989 002a 5265 6164 		.string	"Ready"
 989      7900 
 990               	.LC10:
 991 0030 4154 2B43 		.string	"AT+CIPMODE=0"
 991      4950 4D4F 
 991      4445 3D30 
 991      00
 992               	.LC11:
 993 003d 4154 2B43 		.string	"AT+CIPMUX=1"
 993      4950 4D55 
 993      583D 3100 
 994               	.LC12:
 995 0049 4154 2B43 		.string	"AT+CIPSERVER=1,88"
 995      4950 5345 
 995      5256 4552 
 995      3D31 2C38 
 995      3800 
 996               	.LC13:
 997 005b 4154 2B43 		.string	"AT+CIPSTO=5"
 997      4950 5354 
 997      4F3D 3500 
 998               	.LC14:
 999 0067 4154 2B43 		.string	"AT+CIPSEND=0,330\r\n"
 999      4950 5345 
 999      4E44 3D30 
 999      2C33 3330 
 999      0D0A 00
 1000               	.LC15:
 1001 007a 3E00      		.string	">"
 1002               	.LC16:
 1003 007c 4854 5450 		.string	"HTTP/1.1 200 OK\r\n"
 1003      2F31 2E31 
 1003      2032 3030 
 1003      204F 4B0D 
 1003      0A00 
 1004               	.LC17:
 1005 008e 436F 6E74 		.string	"Content-Type: text/html; charset=UTF-8\r\n\r\n"
 1005      656E 742D 
 1005      5479 7065 
 1005      3A20 7465 
 1005      7874 2F68 
 1006               	.LC18:
 1007 00b9 3C68 746D 		.ascii	"<html><head><title>ESP8266</title></head><body><button oncli"
 1007      6C3E 3C68 
 1007      6561 643E 
 1007      3C74 6974 
 1007      6C65 3E45 
 1008 00f5 636B 3D22 		.ascii	"ck=\"Check(1)\">on</button> <button onclick=\"Check(0)\">off"
 1008      4368 6563 
 1008      6B28 3129 
 1008      223E 6F6E 
 1008      3C2F 6275 
 1009 012d 3C2F 6275 		.ascii	"</button><script> function Check(state){ var xhttp=new XMLHt"
 1009      7474 6F6E 
 1009      3E3C 7363 
 1009      7269 7074 
 1009      3E20 6675 
 1010 0169 7470 5265 		.ascii	"tpRequest();xhttp.open(\"GET\",(s"
 1010      7175 6573 
 1010      7428 293B 
 1010      7868 7474 
 1010      702E 6F70 
 1011 0188 7461 7465 		.string	"tate)?\"/on\":\"/off\",true);xhttp.send();}</script></body></html>\r\n"
 1011      293F 222F 
 1011      6F6E 223A 
 1011      222F 6F66 
 1011      6622 2C74 
 1012               		.text
 1013               	.global	main
 1015               	main:
 1016               	.LFB26:
 1017               	.LM134:
 1018 0408 CF93      		push r28
 1019 040a DF93      		push r29
 1020               	/* prologue: function */
 1021               	/* frame size = 0 */
 1022               	.LBB116:
 1023               	.LBB117:
 1024               	.LM135:
 1025 040c 1092 0000 		sts init,__zero_reg__
 1026               	.LBE117:
 1027               	.LBE116:
 1028               	.LBB118:
 1029               	.LBB119:
 1030               	.LM136:
 1031 0410 1092 0000 		sts packet_detect,__zero_reg__
 1032               	.LBE119:
 1033               	.LBE118:
 1034               	.LM137:
 1035               	/* #APP */
 1036               	 ;  100 "main.c" 1
 1037 0414 F894      		cli
 1038               	 ;  0 "" 2
 1039               	.LM138:
 1040               	/* #NOAPP */
 1041 0416 00D0      		rcall PortMcuInit
 1042               	.LBB120:
 1043               	.LBB121:
 1044               	.LM139:
 1045 0418 82E0      		ldi r24,lo8(2)
 1046 041a 8BB9      		out 43-32,r24
 1047               	.LM140:
 1048 041c 88E9      		ldi r24,lo8(-104)
 1049 041e 8AB9      		out 42-32,r24
 1050               	.LM141:
 1051 0420 86E8      		ldi r24,lo8(-122)
 1052 0422 80BD      		out 64-32,r24
 1053               	.LM142:
 1054 0424 10BC      		out 64-32,__zero_reg__
 1055               	.LM143:
 1056 0426 8CE0      		ldi r24,lo8(12)
 1057 0428 89B9      		out 41-32,r24
 1058 042a 80E1      		ldi r24,lo8(10000)
 1059 042c 97E2      		ldi r25,hi8(10000)
 1060               	.LVL54:
 1061               	.LBE121:
 1062               	.LBE120:
 1063               	.LBB122:
 1064               	.LBB123:
 1065               	.LBB124:
 1066               	.LBB125:
 1067               	.LM144:
 1068 042e 2CE2      		ldi r18,lo8(300)
 1069 0430 31E0      		ldi r19,hi8(300)
 1070               	.L77:
 1071 0432 F901      		movw r30,r18
 1072               	.LVL55:
 1073               	/* #APP */
 1074               	 ;  105 "c:/winavr-20100110/lib/gcc/../../avr/include/util/delay_basic.h" 1
 1075 0434 3197      		1: sbiw r30,1
 1076 0436 01F4      		brne 1b
 1077               	 ;  0 "" 2
 1078               	/* #NOAPP */
 1079               	.LBE125:
 1080               	.LBE124:
 1081               	.LM145:
 1082 0438 0197      		sbiw r24,1
 1083               	.LM146:
 1084 043a 01F4      		brne .L77
 1085               	.LBE123:
 1086               	.LBE122:
 1087               	.LM147:
 1088               	/* #APP */
 1089               	 ;  106 "main.c" 1
 1090 043c 7894      		sei
 1091               	 ;  0 "" 2
 1092               	/* #NOAPP */
 1093               	.L78:
 1094               	.LM148:
 1095 043e 00D0      		rcall Start
 1096               	.LVL56:
 1097 0440 8823      		tst r24
 1098 0442 01F0      		breq .L78
 1099               	.LM149:
 1100 0444 80E0      		ldi r24,lo8(.LC8)
 1101 0446 90E0      		ldi r25,hi8(.LC8)
 1102 0448 60E0      		ldi r22,lo8(.LC9)
 1103 044a 70E0      		ldi r23,hi8(.LC9)
 1104 044c 00D0      		rcall SendATandExpectResponse
 1105               	.LM150:
 1106 044e 80E0      		ldi r24,lo8(.LC10)
 1107 0450 90E0      		ldi r25,hi8(.LC10)
 1108 0452 60E0      		ldi r22,lo8(.LC6)
 1109 0454 70E0      		ldi r23,hi8(.LC6)
 1110 0456 00D0      		rcall SendATandExpectResponse
 1111               	.LM151:
 1112 0458 80E0      		ldi r24,lo8(.LC11)
 1113 045a 90E0      		ldi r25,hi8(.LC11)
 1114 045c 60E0      		ldi r22,lo8(.LC6)
 1115 045e 70E0      		ldi r23,hi8(.LC6)
 1116 0460 00D0      		rcall SendATandExpectResponse
 1117               	.LM152:
 1118 0462 80E0      		ldi r24,lo8(.LC12)
 1119 0464 90E0      		ldi r25,hi8(.LC12)
 1120 0466 60E0      		ldi r22,lo8(.LC6)
 1121 0468 70E0      		ldi r23,hi8(.LC6)
 1122 046a 00D0      		rcall SendATandExpectResponse
 1123               	.LM153:
 1124 046c 80E0      		ldi r24,lo8(.LC13)
 1125 046e 90E0      		ldi r25,hi8(.LC13)
 1126 0470 60E0      		ldi r22,lo8(.LC6)
 1127 0472 70E0      		ldi r23,hi8(.LC6)
 1128 0474 00D0      		rcall SendATandExpectResponse
 1129               	.LM154:
 1130 0476 A99A      		sbi 53-32,1
 1131               	.LBB126:
 1132               	.LBB127:
 1133               	.LBB128:
 1134               	.LBB129:
 1135               	.LM155:
 1136 0478 C8EB      		ldi r28,lo8(3000)
 1137 047a DBE0      		ldi r29,hi8(3000)
 1138               	.LVL57:
 1139               	.L85:
 1140               	.LBE129:
 1141               	.LBE128:
 1142               	.LBE127:
 1143               	.LBE126:
 1144               	.LM156:
 1145 047c 8091 0000 		lds r24,packet_detect
 1146               	.LVL58:
 1147 0480 8823      		tst r24
 1148 0482 01F4      		brne .L79
 1149               	.LBB133:
 1150               	.LBB132:
 1151               	.LBB131:
 1152               	.LBB130:
 1153               	.LM157:
 1154 0484 CE01      		movw r24,r28
 1155               	.LVL59:
 1156               	/* #APP */
 1157               	 ;  105 "c:/winavr-20100110/lib/gcc/../../avr/include/util/delay_basic.h" 1
 1158 0486 0197      		1: sbiw r24,1
 1159 0488 01F4      		brne 1b
 1160               	 ;  0 "" 2
 1161               	/* #NOAPP */
 1162 048a 00C0      		rjmp .L85
 1163               	.LVL60:
 1164               	.L79:
 1165               	.LBE130:
 1166               	.LBE131:
 1167               	.LBE132:
 1168               	.LBE133:
 1169               	.LM158:
 1170 048c 8091 0000 		lds r24,init
 1171 0490 8823      		tst r24
 1172 0492 01F4      		brne .L81
 1173               	.LM159:
 1174 0494 80E0      		ldi r24,lo8(.LC14)
 1175 0496 90E0      		ldi r25,hi8(.LC14)
 1176 0498 60E0      		ldi r22,lo8(.LC15)
 1177 049a 70E0      		ldi r23,hi8(.LC15)
 1178 049c 00D0      		rcall SendATandExpectResponse
 1179 049e 8823      		tst r24
 1180 04a0 01F0      		breq .L81
 1181               	.LM160:
 1182 04a2 80E0      		ldi r24,lo8(.LC16)
 1183 04a4 90E0      		ldi r25,hi8(.LC16)
 1184 04a6 00D0      		rcall USART_SendString
 1185               	.LM161:
 1186 04a8 80E0      		ldi r24,lo8(.LC17)
 1187 04aa 90E0      		ldi r25,hi8(.LC17)
 1188 04ac 00D0      		rcall USART_SendString
 1189               	.LM162:
 1190 04ae 80E0      		ldi r24,lo8(.LC18)
 1191 04b0 90E0      		ldi r25,hi8(.LC18)
 1192 04b2 00D0      		rcall USART_SendString
 1193               	.L81:
 1194               	.LM163:
 1195 04b4 00D0      		rcall Buffer_Flush
 1196               	.LBB134:
 1197               	.LBB135:
 1198               	.LM164:
 1199 04b6 1092 0000 		sts packet_detect,__zero_reg__
 1200 04ba 00C0      		rjmp .L85
 1201               	.LBE135:
 1202               	.LBE134:
 1203               	.LFE26:
 1205               		.data
 1206               	.LC19:
 1207 01c9 2C20 0D0A 		.string	", \r\n"
 1207      00
 1208               		.text
 1209               	.global	GetCommandFindPos
 1211               	GetCommandFindPos:
 1212               	.LFB11:
 1213               	.LM165:
 1214               	.LVL61:
 1215 04bc 8F92      		push r8
 1216 04be 9F92      		push r9
 1217 04c0 AF92      		push r10
 1218 04c2 BF92      		push r11
 1219 04c4 CF92      		push r12
 1220 04c6 DF92      		push r13
 1221 04c8 EF92      		push r14
 1222 04ca FF92      		push r15
 1223 04cc 0F93      		push r16
 1224 04ce 1F93      		push r17
 1225 04d0 CF93      		push r28
 1226 04d2 DF93      		push r29
 1227               	/* prologue: function */
 1228               	/* frame size = 0 */
 1229 04d4 5B01      		movw r10,r22
 1230 04d6 EA01      		movw r28,r20
 1231 04d8 4901      		movw r8,r18
 1232               	.LM166:
 1233 04da 60E0      		ldi r22,lo8(.LC19)
 1234 04dc 70E0      		ldi r23,hi8(.LC19)
 1235               	.LVL62:
 1236 04de 00D0      		rcall strtok
 1237               	.LVL63:
 1238               	.LM167:
 1239 04e0 0097      		sbiw r24,0
 1240               	.LVL64:
 1241 04e2 01F0      		breq .L87
 1242               	.LM168:
 1243 04e4 B501      		movw r22,r10
 1244 04e6 00D0      		rcall strcmp
 1245               	.LVL65:
 1246 04e8 00E0      		ldi r16,lo8(0)
 1247 04ea 10E0      		ldi r17,hi8(0)
 1248               	.LVL66:
 1249 04ec 0097      		sbiw r24,0
 1250 04ee 01F4      		brne .L88
 1251 04f0 01E0      		ldi r16,lo8(1)
 1252 04f2 10E0      		ldi r17,hi8(1)
 1253               	.L88:
 1254 04f4 7801      		movw r14,r16
 1255 04f6 EC1A      		sub r14,r28
 1256 04f8 FD0A      		sbc r15,r29
 1257 04fa CC24      		clr r12
 1258 04fc DD24      		clr r13
 1259               	.LVL67:
 1260 04fe 00C0      		rjmp .L89
 1261               	.LVL68:
 1262               	.L93:
 1263               	.LM169:
 1264 0500 CE01      		movw r24,r28
 1265               	.LVL69:
 1266 0502 B501      		movw r22,r10
 1267 0504 00D0      		rcall strcmp
 1268 0506 0097      		sbiw r24,0
 1269 0508 01F4      		brne .L90
 1270 050a 6801      		movw r12,r16
 1271               	.L90:
 1272               	.LM170:
 1273 050c CE01      		movw r24,r28
 1274 050e B401      		movw r22,r8
 1275 0510 00D0      		rcall strcmp
 1276 0512 0097      		sbiw r24,0
 1277 0514 01F4      		brne .L91
 1278 0516 CE14      		cp r12,r14
 1279 0518 DF04      		cpc r13,r15
 1280 051a 01F4      		brne .L91
 1281 051c 81E0      		ldi r24,lo8(1)
 1282 051e 00C0      		rjmp .L92
 1283               	.L91:
 1284               	.LM171:
 1285 0520 0F5F      		subi r16,lo8(-(1))
 1286 0522 1F4F      		sbci r17,hi8(-(1))
 1287 0524 0894      		sec
 1288 0526 E11C      		adc r14,__zero_reg__
 1289 0528 F11C      		adc r15,__zero_reg__
 1290               	.LVL70:
 1291               	.L89:
 1292               	.LM172:
 1293 052a 80E0      		ldi r24,lo8(0)
 1294 052c 90E0      		ldi r25,hi8(0)
 1295 052e 60E0      		ldi r22,lo8(.LC19)
 1296 0530 70E0      		ldi r23,hi8(.LC19)
 1297 0532 00D0      		rcall strtok
 1298 0534 EC01      		movw r28,r24
 1299               	.LVL71:
 1300               	.LM173:
 1301 0536 0097      		sbiw r24,0
 1302 0538 01F4      		brne .L93
 1303               	.LVL72:
 1304               	.L87:
 1305 053a 80E0      		ldi r24,lo8(0)
 1306               	.LVL73:
 1307               	.L92:
 1308               	/* epilogue start */
 1309               	.LM174:
 1310 053c DF91      		pop r29
 1311 053e CF91      		pop r28
 1312               	.LVL74:
 1313 0540 1F91      		pop r17
 1314 0542 0F91      		pop r16
 1315               	.LVL75:
 1316 0544 FF90      		pop r15
 1317 0546 EF90      		pop r14
 1318 0548 DF90      		pop r13
 1319 054a CF90      		pop r12
 1320               	.LVL76:
 1321 054c BF90      		pop r11
 1322 054e AF90      		pop r10
 1323               	.LVL77:
 1324 0550 9F90      		pop r9
 1325 0552 8F90      		pop r8
 1326               	.LVL78:
 1327 0554 0895      		ret
 1328               	.LFE11:
 1330               		.data
 1331               	.LC20:
 1332 01ce 2C20 220D 		.string	", \"\r\n"
 1332      0A00 
 1333               		.text
 1334               	.global	GetCommandFindAndPosValueCopy
 1336               	GetCommandFindAndPosValueCopy:
 1337               	.LFB12:
 1338               	.LM175:
 1339               	.LVL79:
 1340 0556 8F92      		push r8
 1341 0558 9F92      		push r9
 1342 055a AF92      		push r10
 1343 055c BF92      		push r11
 1344 055e CF92      		push r12
 1345 0560 DF92      		push r13
 1346 0562 EF92      		push r14
 1347 0564 FF92      		push r15
 1348 0566 0F93      		push r16
 1349 0568 1F93      		push r17
 1350 056a CF93      		push r28
 1351 056c DF93      		push r29
 1352               	/* prologue: function */
 1353               	/* frame size = 0 */
 1354 056e 5B01      		movw r10,r22
 1355 0570 EA01      		movw r28,r20
 1356 0572 4901      		movw r8,r18
 1357               	.LM176:
 1358 0574 60E0      		ldi r22,lo8(.LC20)
 1359 0576 70E0      		ldi r23,hi8(.LC20)
 1360               	.LVL80:
 1361 0578 00D0      		rcall strtok
 1362               	.LVL81:
 1363               	.LM177:
 1364 057a 0097      		sbiw r24,0
 1365               	.LVL82:
 1366 057c 01F0      		breq .L96
 1367               	.LM178:
 1368 057e B501      		movw r22,r10
 1369 0580 00D0      		rcall strcmp
 1370               	.LVL83:
 1371 0582 00E0      		ldi r16,lo8(0)
 1372 0584 10E0      		ldi r17,hi8(0)
 1373               	.LVL84:
 1374 0586 0097      		sbiw r24,0
 1375 0588 01F4      		brne .L97
 1376 058a 01E0      		ldi r16,lo8(1)
 1377 058c 10E0      		ldi r17,hi8(1)
 1378               	.L97:
 1379 058e 7801      		movw r14,r16
 1380 0590 EC1A      		sub r14,r28
 1381 0592 FD0A      		sbc r15,r29
 1382 0594 CC24      		clr r12
 1383 0596 DD24      		clr r13
 1384               	.LVL85:
 1385 0598 00C0      		rjmp .L98
 1386               	.LVL86:
 1387               	.L102:
 1388               	.LM179:
 1389 059a CE01      		movw r24,r28
 1390               	.LVL87:
 1391 059c B501      		movw r22,r10
 1392 059e 00D0      		rcall strcmp
 1393 05a0 0097      		sbiw r24,0
 1394 05a2 01F4      		brne .L99
 1395 05a4 6801      		movw r12,r16
 1396               	.L99:
 1397 05a6 C701      		movw r24,r14
 1398 05a8 0196      		adiw r24,1
 1399               	.LM180:
 1400 05aa CE14      		cp r12,r14
 1401 05ac DF04      		cpc r13,r15
 1402 05ae 01F4      		brne .L100
 1403               	.LM181:
 1404 05b0 F401      		movw r30,r8
 1405 05b2 1082      		st Z,__zero_reg__
 1406               	.LM182:
 1407 05b4 C401      		movw r24,r8
 1408 05b6 BE01      		movw r22,r28
 1409 05b8 00D0      		rcall strcpy
 1410 05ba 81E0      		ldi r24,lo8(1)
 1411 05bc 00C0      		rjmp .L101
 1412               	.L100:
 1413               	.LM183:
 1414 05be 0F5F      		subi r16,lo8(-(1))
 1415 05c0 1F4F      		sbci r17,hi8(-(1))
 1416 05c2 7C01      		movw r14,r24
 1417               	.LVL88:
 1418               	.L98:
 1419               	.LM184:
 1420 05c4 80E0      		ldi r24,lo8(0)
 1421 05c6 90E0      		ldi r25,hi8(0)
 1422 05c8 60E0      		ldi r22,lo8(.LC20)
 1423 05ca 70E0      		ldi r23,hi8(.LC20)
 1424 05cc 00D0      		rcall strtok
 1425 05ce EC01      		movw r28,r24
 1426               	.LVL89:
 1427               	.LM185:
 1428 05d0 0097      		sbiw r24,0
 1429 05d2 01F4      		brne .L102
 1430               	.LVL90:
 1431               	.L96:
 1432 05d4 80E0      		ldi r24,lo8(0)
 1433               	.LVL91:
 1434               	.L101:
 1435               	/* epilogue start */
 1436               	.LM186:
 1437 05d6 DF91      		pop r29
 1438 05d8 CF91      		pop r28
 1439               	.LVL92:
 1440 05da 1F91      		pop r17
 1441 05dc 0F91      		pop r16
 1442               	.LVL93:
 1443 05de FF90      		pop r15
 1444 05e0 EF90      		pop r14
 1445 05e2 DF90      		pop r13
 1446 05e4 CF90      		pop r12
 1447               	.LVL94:
 1448 05e6 BF90      		pop r11
 1449 05e8 AF90      		pop r10
 1450               	.LVL95:
 1451 05ea 9F90      		pop r9
 1452 05ec 8F90      		pop r8
 1453               	.LVL96:
 1454 05ee 0895      		ret
 1455               	.LFE12:
 1457               	.global	GetCommandValuePosCopy
 1459               	GetCommandValuePosCopy:
 1460               	.LFB10:
 1461               	.LM187:
 1462               	.LVL97:
 1463 05f0 EF92      		push r14
 1464 05f2 FF92      		push r15
 1465 05f4 0F93      		push r16
 1466 05f6 1F93      		push r17
 1467 05f8 CF93      		push r28
 1468 05fa DF93      		push r29
 1469               	/* prologue: function */
 1470               	/* frame size = 0 */
 1471 05fc 7B01      		movw r14,r22
 1472 05fe 8A01      		movw r16,r20
 1473               	.LM188:
 1474 0600 60E0      		ldi r22,lo8(.LC20)
 1475 0602 70E0      		ldi r23,hi8(.LC20)
 1476               	.LVL98:
 1477 0604 00D0      		rcall strtok
 1478               	.LVL99:
 1479 0606 BC01      		movw r22,r24
 1480               	.LVL100:
 1481               	.LM189:
 1482 0608 0097      		sbiw r24,0
 1483 060a 01F0      		breq .L105
 1484               	.LVL101:
 1485               	.LM190:
 1486 060c E114      		cp r14,__zero_reg__
 1487 060e F104      		cpc r15,__zero_reg__
 1488 0610 01F0      		breq .L112
 1489 0612 C1E0      		ldi r28,lo8(1)
 1490 0614 D0E0      		ldi r29,hi8(1)
 1491               	.LVL102:
 1492 0616 00C0      		rjmp .L107
 1493               	.L110:
 1494               	.LM191:
 1495 0618 EC16      		cp r14,r28
 1496 061a FD06      		cpc r15,r29
 1497 061c 01F4      		brne .L109
 1498               	.L112:
 1499               	.LM192:
 1500 061e F801      		movw r30,r16
 1501 0620 1082      		st Z,__zero_reg__
 1502               	.LM193:
 1503 0622 C801      		movw r24,r16
 1504               	.LVL103:
 1505 0624 00D0      		rcall strcpy
 1506               	.LVL104:
 1507 0626 81E0      		ldi r24,lo8(1)
 1508 0628 00C0      		rjmp .L108
 1509               	.LVL105:
 1510               	.L109:
 1511               	.LM194:
 1512 062a 2196      		adiw r28,1
 1513               	.L107:
 1514               	.LM195:
 1515 062c 80E0      		ldi r24,lo8(0)
 1516 062e 90E0      		ldi r25,hi8(0)
 1517               	.LVL106:
 1518 0630 60E0      		ldi r22,lo8(.LC20)
 1519 0632 70E0      		ldi r23,hi8(.LC20)
 1520               	.LVL107:
 1521 0634 00D0      		rcall strtok
 1522 0636 BC01      		movw r22,r24
 1523               	.LVL108:
 1524               	.LM196:
 1525 0638 0097      		sbiw r24,0
 1526 063a 01F4      		brne .L110
 1527               	.LVL109:
 1528               	.L105:
 1529 063c 80E0      		ldi r24,lo8(0)
 1530               	.LVL110:
 1531               	.L108:
 1532               	/* epilogue start */
 1533               	.LM197:
 1534 063e DF91      		pop r29
 1535 0640 CF91      		pop r28
 1536               	.LVL111:
 1537 0642 1F91      		pop r17
 1538 0644 0F91      		pop r16
 1539               	.LVL112:
 1540 0646 FF90      		pop r15
 1541 0648 EF90      		pop r14
 1542               	.LVL113:
 1543 064a 0895      		ret
 1544               	.LFE10:
 1546               	.global	CRLF_COUNT
 1547               	.global	CRLF_COUNT
 1548               		.section .bss
 1551               	CRLF_COUNT:
 1552 0000 00        		.skip 1,0
 1553               	.global	Counter
 1554               	.global	Counter
 1557               	Counter:
 1558 0001 0000      		.skip 2,0
 1559               	.global	TimeOut
 1560               	.global	TimeOut
 1563               	TimeOut:
 1564 0003 0000      		.skip 2,0
 1565               		.lcomm CRLF_FOUND.1736,1
 1566               		.lcomm CRLF_BUF.1735,2
 1567               		.comm Response_Status,1,1
 1568               		.comm RESPONSE_BUFFER,300,1
 1569               		.comm packet_detect,1,1
 1570               		.comm init,1,1
 1747               	.Letext0:
DEFINED SYMBOLS
                            *ABS*:00000000 main.c
C:\DOCUME~1\9335~1\LOCALS~1\Temp/ccsKoIIG.s:2      *ABS*:0000003f __SREG__
C:\DOCUME~1\9335~1\LOCALS~1\Temp/ccsKoIIG.s:3      *ABS*:0000003e __SP_H__
C:\DOCUME~1\9335~1\LOCALS~1\Temp/ccsKoIIG.s:4      *ABS*:0000003d __SP_L__
C:\DOCUME~1\9335~1\LOCALS~1\Temp/ccsKoIIG.s:5      *ABS*:00000034 __CCP__
C:\DOCUME~1\9335~1\LOCALS~1\Temp/ccsKoIIG.s:6      *ABS*:00000000 __tmp_reg__
C:\DOCUME~1\9335~1\LOCALS~1\Temp/ccsKoIIG.s:7      *ABS*:00000001 __zero_reg__
C:\DOCUME~1\9335~1\LOCALS~1\Temp/ccsKoIIG.s:18     .text:00000000 USART_Init
C:\DOCUME~1\9335~1\LOCALS~1\Temp/ccsKoIIG.s:44     .text:00000014 USART_TxChar
C:\DOCUME~1\9335~1\LOCALS~1\Temp/ccsKoIIG.s:63     .text:0000001c USART_SendString
C:\DOCUME~1\9335~1\LOCALS~1\Temp/ccsKoIIG.s:96     .text:00000030 PortMcuInit
C:\DOCUME~1\9335~1\LOCALS~1\Temp/ccsKoIIG.s:124    .text:00000046 SetDEtect
                            *COM*:00000001 packet_detect
C:\DOCUME~1\9335~1\LOCALS~1\Temp/ccsKoIIG.s:139    .text:0000004c SetInit
                            *COM*:00000001 init
C:\DOCUME~1\9335~1\LOCALS~1\Temp/ccsKoIIG.s:154    .text:00000052 blink
C:\DOCUME~1\9335~1\LOCALS~1\Temp/ccsKoIIG.s:232    .text:0000007c __vector_11
C:\DOCUME~1\9335~1\LOCALS~1\Temp/ccsKoIIG.s:1557   .bss:00000001 Counter
                            *COM*:0000012c RESPONSE_BUFFER
C:\DOCUME~1\9335~1\LOCALS~1\Temp/ccsKoIIG.s:378    .text:0000013c GetResponseBody
C:\DOCUME~1\9335~1\LOCALS~1\Temp/ccsKoIIG.s:509    .text:000001fa Buffer_Flush
C:\DOCUME~1\9335~1\LOCALS~1\Temp/ccsKoIIG.s:539    .text:00000218 Read_Response
C:\DOCUME~1\9335~1\LOCALS~1\Temp/ccsKoIIG.s:1563   .bss:00000003 TimeOut
C:\DOCUME~1\9335~1\LOCALS~1\Temp/ccsKoIIG.s:1551   .bss:00000000 CRLF_COUNT
                            *COM*:00000001 Response_Status
                             .bss:00000005 CRLF_FOUND.1736
C:\DOCUME~1\9335~1\LOCALS~1\Temp/ccsKoIIG.s:1565   .bss:00000006 CRLF_BUF.1735
C:\DOCUME~1\9335~1\LOCALS~1\Temp/ccsKoIIG.s:753    .text:00000334 Start_Read_Response
C:\DOCUME~1\9335~1\LOCALS~1\Temp/ccsKoIIG.s:775    .text:00000346 WaitForExpectedResponseArray
C:\DOCUME~1\9335~1\LOCALS~1\Temp/ccsKoIIG.s:854    .text:00000392 WaitForExpectedResponse
C:\DOCUME~1\9335~1\LOCALS~1\Temp/ccsKoIIG.s:923    .text:000003d2 SendATandExpectResponse
C:\DOCUME~1\9335~1\LOCALS~1\Temp/ccsKoIIG.s:960    .text:000003ea Start
C:\DOCUME~1\9335~1\LOCALS~1\Temp/ccsKoIIG.s:1015   .text:00000408 main
C:\DOCUME~1\9335~1\LOCALS~1\Temp/ccsKoIIG.s:1211   .text:000004bc GetCommandFindPos
C:\DOCUME~1\9335~1\LOCALS~1\Temp/ccsKoIIG.s:1336   .text:00000556 GetCommandFindAndPosValueCopy
C:\DOCUME~1\9335~1\LOCALS~1\Temp/ccsKoIIG.s:1459   .text:000005f0 GetCommandValuePosCopy

UNDEFINED SYMBOLS
strstr
strncpy
memcpy
strncmp
memset
strtok
strcmp
strcpy
__do_copy_data
__do_clear_bss
